; Function Attrs: nofree nounwind uwtable
define noalias noundef ptr @Ssw_FrmStart(ptr noundef %0) local_unnamed_addr #0 {
  %calloc = tail call dereferenceable_or_null(32) ptr @calloc(i64 1, i64 32)
  store ptr %0, ptr %calloc, align 8
  %2 = getelementptr i8, ptr %0, i64 32
  %.val = load ptr, ptr %2, align 8
  %3 = getelementptr i8, ptr %.val, i64 4
  %.val.val = load i32, ptr %3, align 4
  %4 = getelementptr inbounds nuw i8, ptr %calloc, i64 8
  store i32 %.val.val, ptr %4, align 8
  %calloc.i = tail call noalias noundef dereferenceable_or_null(16) ptr @calloc(i64 1, i64 16)
  %5 = getelementptr inbounds nuw i8, ptr %calloc, i64 24
  store ptr %calloc.i, ptr %5, align 8
  %6 = shl nsw i32 %.val.val, 1
  %.not.i.i = icmp sgt i32 %.val.val, 0
  br i1 %.not.i.i, label %.lr.ph.i, label %Vec_PtrFill.exit

.lr.ph.i:                                         ; preds = %1
  %7 = getelementptr inbounds nuw i8, ptr %calloc.i, i64 8
  %8 = zext nneg i32 %6 to i64
  %9 = shl nuw nsw i64 %8, 3
  %10 = tail call noalias ptr @malloc(i64 noundef %9) #8
  store ptr %10, ptr %7, align 8
  store i32 %6, ptr %calloc.i, align 8
  %11 = getelementptr inbounds nuw i8, ptr %calloc.i, i64 8
  %wide.trip.count.i = zext nneg i32 %6 to i64
  br label %12

12:                                               ; preds = %12, %.lr.ph.i
  %indvars.iv.i = phi i64 [ 0, %.lr.ph.i ], [ %indvars.iv.next.i, %12 ]
  %13 = load ptr, ptr %11, align 8
  %14 = getelementptr inbounds nuw ptr, ptr %13, i64 %indvars.iv.i
  store ptr null, ptr %14, align 8
  %indvars.iv.next.i = add nuw nsw i64 %indvars.iv.i, 1
  %exitcond.not.i = icmp eq i64 %indvars.iv.next.i, %wide.trip.count.i
  br i1 %exitcond.not.i, label %Vec_PtrFill.exit, label %12, !llvm.loop !4

Vec_PtrFill.exit:                                 ; preds = %12, %1
  %15 = getelementptr inbounds nuw i8, ptr %calloc.i, i64 4
  store i32 %6, ptr %15, align 4
  ret ptr %calloc
}